; ModuleID = '31/224.c'
source_filename = "31/224.c"
target datalayout = "e-m:e-p270:32:32-p271:32:32-p272:64:64-i64:64-f80:128-n8:16:32:64-S128"
target triple = "x86_64-pc-linux-gnu"

%struct.student = type { [20 x i8], [20 x i8], i8, i32, [20 x i8], [20 x i8], %struct.student* }

@.str = private unnamed_addr constant [3 x i8] c"%s\00", align 1
@.str.1 = private unnamed_addr constant [4 x i8] c"end\00", align 1
@.str.2 = private unnamed_addr constant [15 x i8] c"%s %c %d %s %s\00", align 1
@.str.3 = private unnamed_addr constant [19 x i8] c"%s %s %c %d %s %s\0A\00", align 1

; Function Attrs: noinline nounwind uwtable
define dso_local %struct.student* @create() #0 {
  %1 = alloca %struct.student*, align 8
  %2 = alloca %struct.student*, align 8
  %3 = alloca %struct.student*, align 8
  %4 = call noalias i8* @malloc(i64 100) #4
  %5 = bitcast i8* %4 to %struct.student*
  store %struct.student* %5, %struct.student** %2, align 8
  %6 = load %struct.student*, %struct.student** %2, align 8
  %7 = getelementptr inbounds %struct.student, %struct.student* %6, i32 0, i32 0
  %8 = getelementptr inbounds [20 x i8], [20 x i8]* %7, i64 0, i64 0
  %9 = call i32 (i8*, ...) @__isoc99_scanf(i8* getelementptr inbounds ([3 x i8], [3 x i8]* @.str, i64 0, i64 0), i8* %8)
  %10 = load %struct.student*, %struct.student** %2, align 8
  %11 = getelementptr inbounds %struct.student, %struct.student* %10, i32 0, i32 0
  %12 = getelementptr inbounds [20 x i8], [20 x i8]* %11, i64 0, i64 0
  %13 = call i32 @strcmp(i8* %12, i8* getelementptr inbounds ([4 x i8], [4 x i8]* @.str.1, i64 0, i64 0)) #5
  %14 = icmp eq i32 %13, 0
  br i1 %14, label %15, label %18

15:                                               ; preds = %0
  %16 = load %struct.student*, %struct.student** %2, align 8
  %17 = bitcast %struct.student* %16 to i8*
  call void @free(i8* %17) #4
  store %struct.student* null, %struct.student** %1, align 8
  br label %80

18:                                               ; preds = %0
  %19 = load %struct.student*, %struct.student** %2, align 8
  store %struct.student* %19, %struct.student** %1, align 8
  %20 = load %struct.student*, %struct.student** %2, align 8
  %21 = getelementptr inbounds %struct.student, %struct.student* %20, i32 0, i32 1
  %22 = getelementptr inbounds [20 x i8], [20 x i8]* %21, i64 0, i64 0
  %23 = load %struct.student*, %struct.student** %2, align 8
  %24 = getelementptr inbounds %struct.student, %struct.student* %23, i32 0, i32 2
  %25 = load %struct.student*, %struct.student** %2, align 8
  %26 = getelementptr inbounds %struct.student, %struct.student* %25, i32 0, i32 3
  %27 = load %struct.student*, %struct.student** %2, align 8
  %28 = getelementptr inbounds %struct.student, %struct.student* %27, i32 0, i32 4
  %29 = getelementptr inbounds [20 x i8], [20 x i8]* %28, i64 0, i64 0
  %30 = load %struct.student*, %struct.student** %2, align 8
  %31 = getelementptr inbounds %struct.student, %struct.student* %30, i32 0, i32 5
  %32 = getelementptr inbounds [20 x i8], [20 x i8]* %31, i64 0, i64 0
  %33 = call i32 (i8*, ...) @__isoc99_scanf(i8* getelementptr inbounds ([15 x i8], [15 x i8]* @.str.2, i64 0, i64 0), i8* %22, i8* %24, i32* %26, i8* %29, i8* %32)
  %34 = load %struct.student*, %struct.student** %2, align 8
  %35 = getelementptr inbounds %struct.student, %struct.student* %34, i32 0, i32 6
  store %struct.student* null, %struct.student** %35, align 8
  %36 = load %struct.student*, %struct.student** %2, align 8
  store %struct.student* %36, %struct.student** %3, align 8
  br label %37

37:                                               ; preds = %78, %18
  %38 = call noalias i8* @malloc(i64 100) #4
  %39 = bitcast i8* %38 to %struct.student*
  store %struct.student* %39, %struct.student** %2, align 8
  %40 = load %struct.student*, %struct.student** %2, align 8
  %41 = getelementptr inbounds %struct.student, %struct.student* %40, i32 0, i32 6
  store %struct.student* null, %struct.student** %41, align 8
  %42 = load %struct.student*, %struct.student** %2, align 8
  %43 = getelementptr inbounds %struct.student, %struct.student* %42, i32 0, i32 0
  %44 = getelementptr inbounds [20 x i8], [20 x i8]* %43, i64 0, i64 0
  %45 = call i32 (i8*, ...) @__isoc99_scanf(i8* getelementptr inbounds ([3 x i8], [3 x i8]* @.str, i64 0, i64 0), i8* %44)
  %46 = load %struct.student*, %struct.student** %2, align 8
  %47 = getelementptr inbounds %struct.student, %struct.student* %46, i32 0, i32 0
  %48 = getelementptr inbounds [20 x i8], [20 x i8]* %47, i64 0, i64 0
  %49 = call i32 @strcmp(i8* %48, i8* getelementptr inbounds ([4 x i8], [4 x i8]* @.str.1, i64 0, i64 0)) #5
  %50 = icmp eq i32 %49, 0
  br i1 %50, label %51, label %56

51:                                               ; preds = %37
  %52 = load %struct.student*, %struct.student** %3, align 8
  %53 = getelementptr inbounds %struct.student, %struct.student* %52, i32 0, i32 6
  store %struct.student* null, %struct.student** %53, align 8
  %54 = load %struct.student*, %struct.student** %2, align 8
  %55 = bitcast %struct.student* %54 to i8*
  call void @free(i8* %55) #4
  br label %79

56:                                               ; preds = %37
  %57 = load %struct.student*, %struct.student** %2, align 8
  %58 = getelementptr inbounds %struct.student, %struct.student* %57, i32 0, i32 1
  %59 = getelementptr inbounds [20 x i8], [20 x i8]* %58, i64 0, i64 0
  %60 = load %struct.student*, %struct.student** %2, align 8
  %61 = getelementptr inbounds %struct.student, %struct.student* %60, i32 0, i32 2
  %62 = load %struct.student*, %struct.student** %2, align 8
  %63 = getelementptr inbounds %struct.student, %struct.student* %62, i32 0, i32 3
  %64 = load %struct.student*, %struct.student** %2, align 8
  %65 = getelementptr inbounds %struct.student, %struct.student* %64, i32 0, i32 4
  %66 = getelementptr inbounds [20 x i8], [20 x i8]* %65, i64 0, i64 0
  %67 = load %struct.student*, %struct.student** %2, align 8
  %68 = getelementptr inbounds %struct.student, %struct.student* %67, i32 0, i32 5
  %69 = getelementptr inbounds [20 x i8], [20 x i8]* %68, i64 0, i64 0
  %70 = call i32 (i8*, ...) @__isoc99_scanf(i8* getelementptr inbounds ([15 x i8], [15 x i8]* @.str.2, i64 0, i64 0), i8* %59, i8* %61, i32* %63, i8* %66, i8* %69)
  %71 = load %struct.student*, %struct.student** %2, align 8
  %72 = load %struct.student*, %struct.student** %3, align 8
  %73 = getelementptr inbounds %struct.student, %struct.student* %72, i32 0, i32 6
  store %struct.student* %71, %struct.student** %73, align 8
  %74 = load %struct.student*, %struct.student** %2, align 8
  %75 = getelementptr inbounds %struct.student, %struct.student* %74, i32 0, i32 6
  store %struct.student* null, %struct.student** %75, align 8
  %76 = load %struct.student*, %struct.student** %2, align 8
  store %struct.student* %76, %struct.student** %3, align 8
  br label %77

77:                                               ; preds = %56
  br label %78

78:                                               ; preds = %77
  br i1 true, label %37, label %79

79:                                               ; preds = %78, %51
  br label %80

80:                                               ; preds = %79, %15
  %81 = load %struct.student*, %struct.student** %1, align 8
  ret %struct.student* %81
}

; Function Attrs: nounwind
declare dso_local noalias i8* @malloc(i64) #1

declare dso_local i32 @__isoc99_scanf(i8*, ...) #2

; Function Attrs: nounwind readonly
declare dso_local i32 @strcmp(i8*, i8*) #3

; Function Attrs: nounwind
declare dso_local void @free(i8*) #1

; Function Attrs: noinline nounwind uwtable
define dso_local void @print(%struct.student* %0) #0 {
  %2 = alloca %struct.student*, align 8
  store %struct.student* %0, %struct.student** %2, align 8
  %3 = load %struct.student*, %struct.student** %2, align 8
  %4 = icmp eq %struct.student* %3, null
  br i1 %4, label %5, label %6

5:                                                ; preds = %1
  br label %57

6:                                                ; preds = %1
  %7 = load %struct.student*, %struct.student** %2, align 8
  %8 = getelementptr inbounds %struct.student, %struct.student* %7, i32 0, i32 6
  %9 = load %struct.student*, %struct.student** %8, align 8
  %10 = icmp eq %struct.student* %9, null
  br i1 %10, label %11, label %32

11:                                               ; preds = %6
  %12 = load %struct.student*, %struct.student** %2, align 8
  %13 = getelementptr inbounds %struct.student, %struct.student* %12, i32 0, i32 0
  %14 = getelementptr inbounds [20 x i8], [20 x i8]* %13, i64 0, i64 0
  %15 = load %struct.student*, %struct.student** %2, align 8
  %16 = getelementptr inbounds %struct.student, %struct.student* %15, i32 0, i32 1
  %17 = getelementptr inbounds [20 x i8], [20 x i8]* %16, i64 0, i64 0
  %18 = load %struct.student*, %struct.student** %2, align 8
  %19 = getelementptr inbounds %struct.student, %struct.student* %18, i32 0, i32 2
  %20 = load i8, i8* %19, align 8
  %21 = sext i8 %20 to i32
  %22 = load %struct.student*, %struct.student** %2, align 8
  %23 = getelementptr inbounds %struct.student, %struct.student* %22, i32 0, i32 3
  %24 = load i32, i32* %23, align 4
  %25 = load %struct.student*, %struct.student** %2, align 8
  %26 = getelementptr inbounds %struct.student, %struct.student* %25, i32 0, i32 4
  %27 = getelementptr inbounds [20 x i8], [20 x i8]* %26, i64 0, i64 0
  %28 = load %struct.student*, %struct.student** %2, align 8
  %29 = getelementptr inbounds %struct.student, %struct.student* %28, i32 0, i32 5
  %30 = getelementptr inbounds [20 x i8], [20 x i8]* %29, i64 0, i64 0
  %31 = call i32 (i8*, ...) @printf(i8* getelementptr inbounds ([19 x i8], [19 x i8]* @.str.3, i64 0, i64 0), i8* %14, i8* %17, i32 %21, i32 %24, i8* %27, i8* %30)
  br label %56

32:                                               ; preds = %6
  %33 = load %struct.student*, %struct.student** %2, align 8
  %34 = getelementptr inbounds %struct.student, %struct.student* %33, i32 0, i32 6
  %35 = load %struct.student*, %struct.student** %34, align 8
  call void @print(%struct.student* %35)
  %36 = load %struct.student*, %struct.student** %2, align 8
  %37 = getelementptr inbounds %struct.student, %struct.student* %36, i32 0, i32 0
  %38 = getelementptr inbounds [20 x i8], [20 x i8]* %37, i64 0, i64 0
  %39 = load %struct.student*, %struct.student** %2, align 8
  %40 = getelementptr inbounds %struct.student, %struct.student* %39, i32 0, i32 1
  %41 = getelementptr inbounds [20 x i8], [20 x i8]* %40, i64 0, i64 0
  %42 = load %struct.student*, %struct.student** %2, align 8
  %43 = getelementptr inbounds %struct.student, %struct.student* %42, i32 0, i32 2
  %44 = load i8, i8* %43, align 8
  %45 = sext i8 %44 to i32
  %46 = load %struct.student*, %struct.student** %2, align 8
  %47 = getelementptr inbounds %struct.student, %struct.student* %46, i32 0, i32 3
  %48 = load i32, i32* %47, align 4
  %49 = load %struct.student*, %struct.student** %2, align 8
  %50 = getelementptr inbounds %struct.student, %struct.student* %49, i32 0, i32 4
  %51 = getelementptr inbounds [20 x i8], [20 x i8]* %50, i64 0, i64 0
  %52 = load %struct.student*, %struct.student** %2, align 8
  %53 = getelementptr inbounds %struct.student, %struct.student* %52, i32 0, i32 5
  %54 = getelementptr inbounds [20 x i8], [20 x i8]* %53, i64 0, i64 0
  %55 = call i32 (i8*, ...) @printf(i8* getelementptr inbounds ([19 x i8], [19 x i8]* @.str.3, i64 0, i64 0), i8* %38, i8* %41, i32 %45, i32 %48, i8* %51, i8* %54)
  br label %56

56:                                               ; preds = %32, %11
  br label %57

57:                                               ; preds = %5, %56
  ret void
}

declare dso_local i32 @printf(i8*, ...) #2

; Function Attrs: noinline nounwind uwtable
define dso_local i32 @main() #0 {
  %1 = alloca %struct.student*, align 8
  %2 = call %struct.student* @create()
  store %struct.student* %2, %struct.student** %1, align 8
  %3 = load %struct.student*, %struct.student** %1, align 8
  call void @print(%struct.student* %3)
  ret i32 0
}


!llvm.module.flags = !{!0}
!llvm.ident = !{!1}

!0 = !{i32 1, !"wchar_size", i32 4}
!1 = !{!"clang version 10.0.0-4ubuntu1 "}
